target datalayout = "e-m:e-p270:32:32-p271:32:32-p272:64:64-i64:64-i128:128-f80:128-n8:16:32:64-S128"
target triple = "x86_64-unknown-linux-gnu"

@.str.217 = private unnamed_addr constant [11 x i8] c"-riscv-cpu\00", align 1
@.str.218 = private unnamed_addr constant [27 x i8] c"../qemu/target/riscv/cpu.c\00", align 1
@__func__.riscv_cpu_get_name = private unnamed_addr constant [19 x i8] c"riscv_cpu_get_name\00", align 1
@.str.219 = private unnamed_addr constant [50 x i8] c"g_str_has_suffix(typename, RISCV_CPU_TYPE_SUFFIX)\00", align 1
@.str.250 = private unnamed_addr constant [10 x i8] c"riscv-cpu\00", align 1
@.str.282 = private unnamed_addr constant [31 x i8] c"../qemu/target/riscv/cpu-qom.h\00", align 1
@__func__.RISCV_CPU_GET_CLASS = private unnamed_addr constant [20 x i8] c"RISCV_CPU_GET_CLASS\00", align 1

; Function Attrs: nounwind sspstrong uwtable
define internal ptr @RISCV_CPU_GET_CLASS(ptr noundef %obj) #0 {
entry:
  %obj.addr = alloca ptr, align 8
  store ptr %obj, ptr %obj.addr, align 8
  %0 = load ptr, ptr %obj.addr, align 8
  %call = call ptr @object_get_class(ptr noundef %0)
  %call1 = call ptr @object_class_dynamic_cast_assert(ptr noundef %call, ptr noundef @.str.250, ptr noundef @.str.282, i32 noundef 46, ptr noundef @__func__.RISCV_CPU_GET_CLASS)
  ret ptr %call1
}

; Function Attrs: nounwind sspstrong uwtable
define dso_local ptr @riscv_cpu_get_name(ptr noundef %cpu) #0 {
entry:
  %cpu.addr = alloca ptr, align 8
  %rcc = alloca ptr, align 8
  %typename = alloca ptr, align 8
  store ptr %cpu, ptr %cpu.addr, align 8
  %0 = load ptr, ptr %cpu.addr, align 8
  %call = call ptr @RISCV_CPU_GET_CLASS(ptr noundef %0)
  store ptr %call, ptr %rcc, align 8
  %1 = load ptr, ptr %rcc, align 8
  %call1 = call ptr @object_class_get_name(ptr noundef %1)
  store ptr %call1, ptr %typename, align 8
  br label %do.body

do.body:                                          ; preds = %entry
  %2 = load ptr, ptr %typename, align 8
  %call2 = call i32 @g_str_has_suffix(ptr noundef %2, ptr noundef @.str.217)
  %tobool = icmp ne i32 %call2, 0
  br i1 %tobool, label %if.then, label %if.else

if.then:                                          ; preds = %do.body
  br label %if.end

if.else:                                          ; preds = %do.body
  call void @g_assertion_message_expr(ptr noundef null, ptr noundef @.str.218, i32 noundef 660, ptr noundef @__func__.riscv_cpu_get_name, ptr noundef @.str.219) #8
  unreachable

if.end:                                           ; preds = %if.then
  br label %do.end

do.end:                                           ; preds = %if.end
  %3 = load ptr, ptr %typename, align 8
  %4 = load ptr, ptr %typename, align 8
  %call3 = call i64 @strlen(ptr noundef %4) #9
  %sub = sub i64 %call3, 10
  %call4 = call noalias ptr @g_strndup(ptr noundef %3, i64 noundef %sub)
  ret ptr %call4
}