; Function Attrs: nounwind sspstrong uwtable
define dso_local noalias ptr @riscv_cpu_get_name(ptr noundef %cpu) local_unnamed_addr #3 {
entry:
  %call.i = tail call ptr @object_get_class(ptr noundef %cpu) #14
  %call1.i = tail call ptr @object_class_dynamic_cast_assert(ptr noundef %call.i, ptr noundef nonnull @.str.250, ptr noundef nonnull @.str.282, i32 noundef 46, ptr noundef nonnull @__func__.RISCV_CPU_GET_CLASS) #14
  %call1 = tail call ptr @object_class_get_name(ptr noundef %call1.i) #14
  %call2 = tail call i32 @g_str_has_suffix(ptr noundef %call1, ptr noundef nonnull @.str.217) #14
  %tobool.not = icmp eq i32 %call2, 0
  br i1 %tobool.not, label %if.else, label %do.end

if.else:                                          ; preds = %entry
  tail call void @g_assertion_message_expr(ptr noundef null, ptr noundef nonnull @.str.218, i32 noundef 660, ptr noundef nonnull @__func__.riscv_cpu_get_name, ptr noundef nonnull @.str.219) #15
  unreachable

do.end:                                           ; preds = %entry
  %call3 = tail call i64 @strlen(ptr noundef nonnull dereferenceable(1) %call1) #16
  %sub = add i64 %call3, -10
  %call4 = tail call noalias ptr @g_strndup(ptr noundef nonnull %call1, i64 noundef %sub) #14
  ret ptr %call4
}